; Function Attrs: mustprogress uwtable
define ptr @udatpg_getDecimal_77(ptr noundef nonnull %0, ptr noundef writeonly %1) local_unnamed_addr #0 {
  %3 = tail call noundef nonnull align 8 dereferenceable(64) ptr @_ZNK6icu_7724DateTimePatternGenerator10getDecimalEv(ptr noundef nonnull align 8 dereferenceable(4796) %0)
  %.not = icmp eq ptr %1, null
  br i1 %.not, label %13, label %4

4:                                                ; preds = %2
  %5 = getelementptr inbounds nuw i8, ptr %3, i64 8
  %6 = load i16, ptr %5, align 8, !tbaa !17
  %7 = icmp slt i16 %6, 0
  %8 = ashr i16 %6, 5
  %9 = sext i16 %8 to i32
  %10 = getelementptr inbounds nuw i8, ptr %3, i64 12
  %11 = load i32, ptr %10, align 4
  %12 = select i1 %7, i32 %11, i32 %9
  store i32 %12, ptr %1, align 4, !tbaa !18
  br label %13

13:                                               ; preds = %4, %2
  %14 = getelementptr inbounds nuw i8, ptr %3, i64 8
  %15 = load i16, ptr %14, align 8, !tbaa !17
  %16 = and i16 %15, 17
  %.not.i = icmp eq i16 %16, 0
  br i1 %.not.i, label %17, label %_ZNK6icu_7713UnicodeString9getBufferEv.exit

17:                                               ; preds = %13
  %18 = and i16 %15, 2
  %.not2.i = icmp eq i16 %18, 0
  br i1 %.not2.i, label %21, label %19

19:                                               ; preds = %17
  %20 = getelementptr inbounds nuw i8, ptr %3, i64 10
  br label %_ZNK6icu_7713UnicodeString9getBufferEv.exit

21:                                               ; preds = %17
  %22 = getelementptr inbounds nuw i8, ptr %3, i64 24
  %23 = load ptr, ptr %22, align 8, !tbaa !17
  br label %_ZNK6icu_7713UnicodeString9getBufferEv.exit

_ZNK6icu_7713UnicodeString9getBufferEv.exit:      ; preds = %13, %19, %21
  %.0.i = phi ptr [ %20, %19 ], [ %23, %21 ], [ null, %13 ]
  ret ptr %.0.i
}